; Function Attrs: nounwind uwtable
define dso_local i32 @fsck_report_ref(ptr noundef %0, ptr noundef %1, i32 noundef %2, ptr noundef %3, ...) local_unnamed_addr #0 {
  %5 = alloca [1 x %struct.__va_list_tag], align 16
  call void @llvm.lifetime.start.p0(i64 24, ptr nonnull %5) #16
  call void @llvm.va_start.p0(ptr nonnull %5)
  %6 = call fastcc i32 @fsck_vreport(ptr noundef %0, ptr noundef %1, i32 noundef %2, ptr noundef %3, ptr noundef %5)
  call void @llvm.va_end.p0(ptr nonnull %5)
  call void @llvm.lifetime.end.p0(i64 24, ptr nonnull %5) #16
  ret i32 %6
}